; ModuleID = '40/919.c'
source_filename = "40/919.c"
target datalayout = "e-m:e-p270:32:32-p271:32:32-p272:64:64-i64:64-f80:128-n8:16:32:64-S128"
target triple = "x86_64-pc-linux-gnu"

@.str = private unnamed_addr constant [16 x i8] c"%lf%lf%lf%lf%lf\00", align 1
@.str.1 = private unnamed_addr constant [6 x i8] c"%.4lf\00", align 1
@.str.2 = private unnamed_addr constant [14 x i8] c"Invalid input\00", align 1

; Function Attrs: noinline nounwind uwtable
define dso_local i32 @main() #0 {
  %1 = alloca i32, align 4
  %2 = alloca double, align 8
  %3 = alloca double, align 8
  %4 = alloca double, align 8
  %5 = alloca double, align 8
  %6 = alloca double, align 8
  %7 = alloca double, align 8
  %8 = alloca double, align 8
  store i32 0, i32* %1, align 4
  %9 = call i32 (i8*, ...) @__isoc99_scanf(i8* getelementptr inbounds ([16 x i8], [16 x i8]* @.str, i64 0, i64 0), double* %2, double* %3, double* %4, double* %5, double* %7)
  %10 = load double, double* %2, align 8
  %11 = load double, double* %3, align 8
  %12 = fadd double %10, %11
  %13 = load double, double* %4, align 8
  %14 = fadd double %12, %13
  %15 = load double, double* %5, align 8
  %16 = fadd double %14, %15
  %17 = fdiv double %16, 2.000000e+00
  store double %17, double* %6, align 8
  %18 = load double, double* %6, align 8
  %19 = load double, double* %2, align 8
  %20 = fsub double %18, %19
  %21 = load double, double* %6, align 8
  %22 = load double, double* %3, align 8
  %23 = fsub double %21, %22
  %24 = fmul double %20, %23
  %25 = load double, double* %6, align 8
  %26 = load double, double* %4, align 8
  %27 = fsub double %25, %26
  %28 = fmul double %24, %27
  %29 = load double, double* %6, align 8
  %30 = load double, double* %5, align 8
  %31 = fsub double %29, %30
  %32 = fmul double %28, %31
  %33 = fcmp ogt double %32, 0.000000e+00
  br i1 %33, label %34, label %71

34:                                               ; preds = %0
  %35 = load double, double* %6, align 8
  %36 = load double, double* %2, align 8
  %37 = fsub double %35, %36
  %38 = load double, double* %6, align 8
  %39 = load double, double* %3, align 8
  %40 = fsub double %38, %39
  %41 = fmul double %37, %40
  %42 = load double, double* %6, align 8
  %43 = load double, double* %4, align 8
  %44 = fsub double %42, %43
  %45 = fmul double %41, %44
  %46 = load double, double* %6, align 8
  %47 = load double, double* %5, align 8
  %48 = fsub double %46, %47
  %49 = fmul double %45, %48
  %50 = load double, double* %2, align 8
  %51 = load double, double* %3, align 8
  %52 = fmul double %50, %51
  %53 = load double, double* %4, align 8
  %54 = fmul double %52, %53
  %55 = load double, double* %5, align 8
  %56 = fmul double %54, %55
  %57 = load double, double* %7, align 8
  %58 = fdiv double %57, 3.600000e+02
  %59 = fmul double %58, 0x400921FB4D12D84A
  %60 = call double @cos(double %59) #3
  %61 = fmul double %56, %60
  %62 = load double, double* %7, align 8
  %63 = fdiv double %62, 3.600000e+02
  %64 = fmul double %63, 0x400921FB4D12D84A
  %65 = call double @cos(double %64) #3
  %66 = fmul double %61, %65
  %67 = fsub double %49, %66
  %68 = call double @sqrt(double %67) #3
  store double %68, double* %8, align 8
  %69 = load double, double* %8, align 8
  %70 = call i32 (i8*, ...) @printf(i8* getelementptr inbounds ([6 x i8], [6 x i8]* @.str.1, i64 0, i64 0), double %69)
  br label %73

71:                                               ; preds = %0
  %72 = call i32 (i8*, ...) @printf(i8* getelementptr inbounds ([14 x i8], [14 x i8]* @.str.2, i64 0, i64 0))
  br label %73

73:                                               ; preds = %71, %34
  ret i32 0
}

declare dso_local i32 @__isoc99_scanf(i8*, ...) #1

; Function Attrs: nounwind
declare dso_local double @sqrt(double) #2

; Function Attrs: nounwind
declare dso_local double @cos(double) #2

declare dso_local i32 @printf(i8*, ...) #1


!llvm.module.flags = !{!0}
!llvm.ident = !{!1}

!0 = !{i32 1, !"wchar_size", i32 4}
!1 = !{!"clang version 10.0.0-4ubuntu1 "}
